target datalayout = "e-m:e-p270:32:32-p271:32:32-p272:64:64-i64:64-i128:128-f80:128-n8:16:32:64-S128"
target triple = "x86_64-pc-linux-gnu"

%struct.AVFormatContext = type { ptr, ptr, ptr, ptr, ptr, i32, i32, ptr, i32, ptr, i32, ptr, ptr, i64, i64, i64, i32, i32, i32, i64, i64, ptr, i32, i32, ptr, i32, i32, i32, i32, ptr, i64, i32, i32, %struct.AVIOInterruptCB, i32, i32, i32, i32, i64, i32, i32, i32, i32, i32, i32, i32, i32, i32, i32, i32, i32, i64, i32, i32, i32, i32, i32, ptr, ptr, ptr, ptr, i32, ptr, ptr, ptr, ptr, i32, ptr, ptr, i64, ptr, ptr, ptr, i64 }
%struct.AVIOInterruptCB = type { ptr, ptr }
%struct.AVStream = type { ptr, i32, i32, ptr, ptr, %struct.AVRational, i64, i64, i64, i32, i32, %struct.AVRational, ptr, %struct.AVRational, %struct.AVPacket, i32, %struct.AVRational, i32 }
%struct.AVPacket = type { ptr, i64, i64, ptr, i32, i32, i32, ptr, i32, i64, i64, ptr, ptr, %struct.AVRational }
%struct.AVRational = type { i32, i32 }
%struct.AVCodecParameters = type { i32, i32, i32, ptr, i32, ptr, i32, i32, i64, i32, i32, i32, i32, i32, i32, %struct.AVRational, %struct.AVRational, i32, i32, i32, i32, i32, i32, i32, %struct.AVChannelLayout, i32, i32, i32, i32, i32, i32 }
%struct.AVChannelLayout = type { i32, i32, %union.anon, ptr }
%union.anon = type { i64 }

@.str.3 = private unnamed_addr constant [28 x i8] c"skipping unknown chunk: %X\0A\00", align 1

; Function Attrs: alwaysinline nounwind uwtable
define internal i64 @avio_tell(ptr noundef %0) #4 {
  %2 = alloca ptr, align 8
  store ptr %0, ptr %2, align 8, !tbaa !61
  %3 = load ptr, ptr %2, align 8, !tbaa !61
  %4 = call i64 @avio_seek(ptr noundef %3, i64 noundef 0, i32 noundef 1)
  ret i64 %4
}

; Function Attrs: nounwind uwtable
define internal i32 @threedostr_read_packet(ptr noundef %0, ptr noundef %1) #0 {
  %3 = alloca i32, align 4
  %4 = alloca ptr, align 8
  %5 = alloca ptr, align 8
  %6 = alloca i32, align 4
  %7 = alloca i32, align 4
  %8 = alloca ptr, align 8
  %9 = alloca i64, align 8
  %10 = alloca i32, align 4
  %11 = alloca i32, align 4
  store ptr %0, ptr %4, align 8, !tbaa !18
  store ptr %1, ptr %5, align 8, !tbaa !53
  call void @llvm.lifetime.start.p0(i64 4, ptr %6) #5
  call void @llvm.lifetime.start.p0(i64 4, ptr %7) #5
  call void @llvm.lifetime.start.p0(i64 8, ptr %8) #5
  %12 = load ptr, ptr %4, align 8, !tbaa !18
  %13 = getelementptr inbounds nuw %struct.AVFormatContext, ptr %12, i32 0, i32 7
  %14 = load ptr, ptr %13, align 8, !tbaa !55
  %15 = getelementptr inbounds ptr, ptr %14, i64 0
  %16 = load ptr, ptr %15, align 8, !tbaa !35
  store ptr %16, ptr %8, align 8, !tbaa !35
  call void @llvm.lifetime.start.p0(i64 8, ptr %9) #5
  call void @llvm.lifetime.start.p0(i64 4, ptr %10) #5
  store i32 0, ptr %10, align 4, !tbaa !9
  br label %17

17:                                               ; preds = %96, %39, %2
  %18 = load ptr, ptr %4, align 8, !tbaa !18
  %19 = getelementptr inbounds nuw %struct.AVFormatContext, ptr %18, i32 0, i32 4
  %20 = load ptr, ptr %19, align 8, !tbaa !20
  %21 = call i32 @avio_feof(ptr noundef %20)
  %22 = icmp ne i32 %21, 0
  %23 = xor i1 %22, true
  br i1 %23, label %24, label %103

24:                                               ; preds = %17
  %25 = load ptr, ptr %4, align 8, !tbaa !18
  %26 = getelementptr inbounds nuw %struct.AVFormatContext, ptr %25, i32 0, i32 4
  %27 = load ptr, ptr %26, align 8, !tbaa !20
  %28 = call i64 @avio_tell(ptr noundef %27)
  store i64 %28, ptr %9, align 8, !tbaa !56
  %29 = load ptr, ptr %4, align 8, !tbaa !18
  %30 = getelementptr inbounds nuw %struct.AVFormatContext, ptr %29, i32 0, i32 4
  %31 = load ptr, ptr %30, align 8, !tbaa !20
  %32 = call i32 @avio_rl32(ptr noundef %31)
  store i32 %32, ptr %6, align 4, !tbaa !9
  %33 = load ptr, ptr %4, align 8, !tbaa !18
  %34 = getelementptr inbounds nuw %struct.AVFormatContext, ptr %33, i32 0, i32 4
  %35 = load ptr, ptr %34, align 8, !tbaa !20
  %36 = call i32 @avio_rb32(ptr noundef %35)
  store i32 %36, ptr %7, align 4, !tbaa !9
  %37 = load i32, ptr %7, align 4, !tbaa !9
  %38 = icmp ne i32 %37, 0
  br i1 %38, label %40, label %39

39:                                               ; preds = %24
  br label %17, !llvm.loop !57

40:                                               ; preds = %24
  %41 = load i32, ptr %7, align 4, !tbaa !9
  %42 = icmp ult i32 %41, 8
  br i1 %42, label %43, label %44

43:                                               ; preds = %40
  store i32 -1094995529, ptr %3, align 4
  store i32 1, ptr %11, align 4
  br label %104

44:                                               ; preds = %40
  %45 = load i32, ptr %7, align 4, !tbaa !9
  %46 = sub i32 %45, 8
  store i32 %46, ptr %7, align 4, !tbaa !9
  %47 = load i32, ptr %6, align 4, !tbaa !9
  switch i32 %47, label %93 [
    i32 1396985427, label %48
  ]

48:                                               ; preds = %44
  %49 = load i32, ptr %7, align 4, !tbaa !9
  %50 = icmp ule i32 %49, 16
  br i1 %50, label %51, label %52

51:                                               ; preds = %48
  store i32 -1094995529, ptr %3, align 4
  store i32 1, ptr %11, align 4
  br label %104

52:                                               ; preds = %48
  %53 = load ptr, ptr %4, align 8, !tbaa !18
  %54 = getelementptr inbounds nuw %struct.AVFormatContext, ptr %53, i32 0, i32 4
  %55 = load ptr, ptr %54, align 8, !tbaa !20
  %56 = call i64 @avio_skip(ptr noundef %55, i64 noundef 8)
  %57 = load ptr, ptr %4, align 8, !tbaa !18
  %58 = getelementptr inbounds nuw %struct.AVFormatContext, ptr %57, i32 0, i32 4
  %59 = load ptr, ptr %58, align 8, !tbaa !20
  %60 = call i32 @avio_rl32(ptr noundef %59)
  %61 = icmp ne i32 %60, 1347244883
  br i1 %61, label %62, label %63

62:                                               ; preds = %52
  store i32 -1094995529, ptr %3, align 4
  store i32 1, ptr %11, align 4
  br label %104

63:                                               ; preds = %52
  %64 = load ptr, ptr %4, align 8, !tbaa !18
  %65 = getelementptr inbounds nuw %struct.AVFormatContext, ptr %64, i32 0, i32 4
  %66 = load ptr, ptr %65, align 8, !tbaa !20
  %67 = call i64 @avio_skip(ptr noundef %66, i64 noundef 4)
  %68 = load i32, ptr %7, align 4, !tbaa !9
  %69 = sub i32 %68, 16
  store i32 %69, ptr %7, align 4, !tbaa !9
  %70 = load ptr, ptr %4, align 8, !tbaa !18
  %71 = getelementptr inbounds nuw %struct.AVFormatContext, ptr %70, i32 0, i32 4
  %72 = load ptr, ptr %71, align 8, !tbaa !20
  %73 = load ptr, ptr %5, align 8, !tbaa !53
  %74 = load i32, ptr %7, align 4, !tbaa !9
  %75 = call i32 @av_get_packet(ptr noundef %72, ptr noundef %73, i32 noundef %74)
  store i32 %75, ptr %10, align 4, !tbaa !9
  %76 = load i64, ptr %9, align 8, !tbaa !56
  %77 = load ptr, ptr %5, align 8, !tbaa !53
  %78 = getelementptr inbounds nuw %struct.AVPacket, ptr %77, i32 0, i32 10
  store i64 %76, ptr %78, align 8, !tbaa !58
  %79 = load ptr, ptr %5, align 8, !tbaa !53
  %80 = getelementptr inbounds nuw %struct.AVPacket, ptr %79, i32 0, i32 5
  store i32 0, ptr %80, align 4, !tbaa !59
  %81 = load i32, ptr %7, align 4, !tbaa !9
  %82 = load ptr, ptr %8, align 8, !tbaa !35
  %83 = getelementptr inbounds nuw %struct.AVStream, ptr %82, i32 0, i32 3
  %84 = load ptr, ptr %83, align 8, !tbaa !37
  %85 = getelementptr inbounds nuw %struct.AVCodecParameters, ptr %84, i32 0, i32 24
  %86 = getelementptr inbounds nuw %struct.AVChannelLayout, ptr %85, i32 0, i32 1
  %87 = load i32, ptr %86, align 4, !tbaa !48
  %88 = udiv i32 %81, %87
  %89 = zext i32 %88 to i64
  %90 = load ptr, ptr %5, align 8, !tbaa !53
  %91 = getelementptr inbounds nuw %struct.AVPacket, ptr %90, i32 0, i32 9
  store i64 %89, ptr %91, align 8, !tbaa !60
  %92 = load i32, ptr %10, align 4, !tbaa !9
  store i32 %92, ptr %3, align 4
  store i32 1, ptr %11, align 4
  br label %104

93:                                               ; preds = %44
  %94 = load ptr, ptr %4, align 8, !tbaa !18
  %95 = load i32, ptr %6, align 4, !tbaa !9
  call void (ptr, i32, ptr, ...) @av_log(ptr noundef %94, i32 noundef 48, ptr noundef @.str.3, i32 noundef %95)
  br label %96

96:                                               ; preds = %93
  %97 = load ptr, ptr %4, align 8, !tbaa !18
  %98 = getelementptr inbounds nuw %struct.AVFormatContext, ptr %97, i32 0, i32 4
  %99 = load ptr, ptr %98, align 8, !tbaa !20
  %100 = load i32, ptr %7, align 4, !tbaa !9
  %101 = zext i32 %100 to i64
  %102 = call i64 @avio_skip(ptr noundef %99, i64 noundef %101)
  br label %17, !llvm.loop !57

103:                                              ; preds = %17
  store i32 -541478725, ptr %3, align 4
  store i32 1, ptr %11, align 4
  br label %104

104:                                              ; preds = %103, %63, %62, %51, %43
  call void @llvm.lifetime.end.p0(i64 4, ptr %10) #5
  call void @llvm.lifetime.end.p0(i64 8, ptr %9) #5
  call void @llvm.lifetime.end.p0(i64 8, ptr %8) #5
  call void @llvm.lifetime.end.p0(i64 4, ptr %7) #5
  call void @llvm.lifetime.end.p0(i64 4, ptr %6) #5
  %105 = load i32, ptr %3, align 4
  ret i32 %105
}