; Function Attrs: nounwind uwtable
define internal i32 @threedostr_read_packet(ptr noundef %0, ptr noundef %1) #1 {
  %3 = getelementptr inbounds nuw i8, ptr %0, i64 48
  %4 = load ptr, ptr %3, align 8, !tbaa !46
  %5 = load ptr, ptr %4, align 8, !tbaa !47
  %6 = getelementptr inbounds nuw i8, ptr %0, i64 32
  %7 = load ptr, ptr %6, align 8, !tbaa !15
  %8 = tail call i32 @avio_feof(ptr noundef %7) #4
  %.not37 = icmp eq i32 %8, 0
  br i1 %.not37, label %.lr.ph, label %.loopexit

.lr.ph:                                           ; preds = %2, %.backedge
  %9 = load ptr, ptr %6, align 8, !tbaa !15
  %10 = tail call i64 @avio_seek(ptr noundef %9, i64 noundef 0, i32 noundef 1) #4
  %11 = load ptr, ptr %6, align 8, !tbaa !15
  %12 = tail call i32 @avio_rl32(ptr noundef %11) #4
  %13 = load ptr, ptr %6, align 8, !tbaa !15
  %14 = tail call i32 @avio_rb32(ptr noundef %13) #4
  %.not31 = icmp eq i32 %14, 0
  br i1 %.not31, label %.backedge, label %15

15:                                               ; preds = %.lr.ph
  %16 = icmp ult i32 %14, 8
  br i1 %16, label %.loopexit, label %17

17:                                               ; preds = %15
  %18 = add i32 %14, -8
  %cond = icmp eq i32 %12, 1396985427
  br i1 %cond, label %19, label %41

19:                                               ; preds = %17
  %20 = icmp ult i32 %18, 17
  br i1 %20, label %.loopexit, label %21

21:                                               ; preds = %19
  %22 = load ptr, ptr %6, align 8, !tbaa !15
  %23 = tail call i64 @avio_skip(ptr noundef %22, i64 noundef 8) #4
  %24 = load ptr, ptr %6, align 8, !tbaa !15
  %25 = tail call i32 @avio_rl32(ptr noundef %24) #4
  %.not32 = icmp eq i32 %25, 1347244883
  br i1 %.not32, label %26, label %.loopexit

26:                                               ; preds = %21
  %27 = load ptr, ptr %6, align 8, !tbaa !15
  %28 = tail call i64 @avio_skip(ptr noundef %27, i64 noundef 4) #4
  %29 = add i32 %14, -24
  %30 = load ptr, ptr %6, align 8, !tbaa !15
  %31 = tail call i32 @av_get_packet(ptr noundef %30, ptr noundef %1, i32 noundef %29) #4
  %32 = getelementptr inbounds nuw i8, ptr %1, i64 72
  store i64 %10, ptr %32, align 8, !tbaa !49
  %33 = getelementptr inbounds nuw i8, ptr %1, i64 36
  store i32 0, ptr %33, align 4, !tbaa !50
  %34 = getelementptr inbounds nuw i8, ptr %5, i64 16
  %35 = load ptr, ptr %34, align 8, !tbaa !30
  %36 = getelementptr inbounds nuw i8, ptr %35, i64 132
  %37 = load i32, ptr %36, align 4, !tbaa !41
  %38 = udiv i32 %29, %37
  %39 = zext i32 %38 to i64
  %40 = getelementptr inbounds nuw i8, ptr %1, i64 64
  store i64 %39, ptr %40, align 8, !tbaa !51
  br label %.loopexit

41:                                               ; preds = %17
  tail call void (ptr, i32, ptr, ...) @av_log(ptr noundef nonnull %0, i32 noundef 48, ptr noundef nonnull @.str.3, i32 noundef %12) #4
  %42 = load ptr, ptr %6, align 8, !tbaa !15
  %43 = zext i32 %18 to i64
  %44 = tail call i64 @avio_skip(ptr noundef %42, i64 noundef %43) #4
  br label %.backedge

.backedge:                                        ; preds = %41, %.lr.ph
  %45 = load ptr, ptr %6, align 8, !tbaa !15
  %46 = tail call i32 @avio_feof(ptr noundef %45) #4
  %.not = icmp eq i32 %46, 0
  br i1 %.not, label %.lr.ph, label %.loopexit, !llvm.loop !52

.loopexit:                                        ; preds = %15, %.backedge, %2, %21, %19, %26
  %.0 = phi i32 [ %31, %26 ], [ -1094995529, %19 ], [ -1094995529, %21 ], [ -541478725, %2 ], [ -1094995529, %15 ], [ -541478725, %.backedge ]
  ret i32 %.0
}